; Function Attrs: nounwind uwtable
define internal fastcc range(i32 -2147483640, -2147483648) i32 @mov_write_glbl_tag(ptr noundef %0, ptr noundef readonly captures(none) %1) unnamed_addr #0 {
  %3 = getelementptr inbounds nuw i8, ptr %1, i64 120
  %4 = load i32, ptr %3, align 8, !tbaa !94
  %5 = add nsw i32 %4, 8
  tail call void @avio_wb32(ptr noundef %0, i32 noundef %5) #16
  tail call void @avio_wl32(ptr noundef %0, i32 noundef 1818389607) #16
  %6 = getelementptr inbounds nuw i8, ptr %1, i64 128
  %7 = load ptr, ptr %6, align 8, !tbaa !97
  %8 = load i32, ptr %3, align 8, !tbaa !94
  tail call void @avio_write(ptr noundef %0, ptr noundef %7, i32 noundef %8) #16
  %9 = load i32, ptr %3, align 8, !tbaa !94
  %10 = add nsw i32 %9, 8
  ret i32 %10
}